target datalayout = "e-m:e-p270:32:32-p271:32:32-p272:64:64-i64:64-i128:128-f80:128-n8:16:32:64-S128"
target triple = "x86_64-pc-linux-gnu"

@g_sigchildWait = dso_local global i32 1, align 4
@g_terminate = dso_local global i16 0, align 2
@g_pidfile = dso_local global ptr null, align 8
@g_freshclamTempDirectory = dso_local global [4096 x i8] zeroinitializer, align 16
@g_active_children = external global i32, align 4
@.str.229 = private unnamed_addr constant [27 x i8] c"Update process terminated\0A\00", align 1

; Function Attrs: nounwind uwtable
define internal void @sighandler(i32 noundef %0) #0 {
  %2 = alloca i32, align 4
  store i32 %0, ptr %2, align 4
  %3 = load i32, ptr %2, align 4
  switch i32 %3, label %16 [
    i32 17, label %4
    i32 13, label %12
    i32 14, label %13
    i32 10, label %14
    i32 1, label %15
  ]

4:                                                ; preds = %1
  %5 = load i32, ptr @g_sigchildWait, align 4
  %6 = icmp ne i32 %5, 0
  br i1 %6, label %7, label %9

7:                                                ; preds = %4
  %8 = call i32 @waitpid(i32 noundef -1, ptr noundef null, i32 noundef 1)
  br label %9

9:                                                ; preds = %7, %4
  %10 = load i32, ptr @g_active_children, align 4
  %11 = add nsw i32 %10, -1
  store i32 %11, ptr @g_active_children, align 4
  br label %29

12:                                               ; preds = %1
  br label %29

13:                                               ; preds = %1
  store i16 -1, ptr @g_terminate, align 2
  br label %29

14:                                               ; preds = %1
  store i16 -1, ptr @g_terminate, align 2
  br label %29

15:                                               ; preds = %1
  store i16 -2, ptr @g_terminate, align 2
  br label %29

16:                                               ; preds = %1
  %17 = load i8, ptr @g_freshclamTempDirectory, align 16
  %18 = icmp ne i8 %17, 0
  br i1 %18, label %19, label %21

19:                                               ; preds = %16
  %20 = call i32 @cli_rmdirs(ptr noundef @g_freshclamTempDirectory)
  br label %21

21:                                               ; preds = %19, %16
  %22 = load ptr, ptr @g_pidfile, align 8
  %23 = icmp ne ptr %22, null
  br i1 %23, label %24, label %27

24:                                               ; preds = %21
  %25 = load ptr, ptr @g_pidfile, align 8
  %26 = call i32 @unlink(ptr noundef %25) #10
  br label %27

27:                                               ; preds = %24, %21
  %28 = call i32 (i32, ptr, ...) @logg(i32 noundef 0, ptr noundef @.str.229)
  call void @exit(i32 noundef 0) #12
  unreachable

29:                                               ; preds = %15, %14, %13, %12, %9
  ret void
}