; Function Attrs: nounwind uwtable
define internal void @sighandler(i32 noundef %0) #0 {
  switch i32 %0, label %12 [
    i32 17, label %2
    i32 13, label %22
    i32 14, label %9
    i32 10, label %10
    i32 1, label %11
  ]

2:                                                ; preds = %1
  %3 = load i32, ptr @g_sigchildWait, align 4
  %.not = icmp eq i32 %3, 0
  br i1 %.not, label %6, label %4

4:                                                ; preds = %2
  %5 = tail call i32 @waitpid(i32 noundef -1, ptr noundef null, i32 noundef 1) #17
  br label %6

6:                                                ; preds = %4, %2
  %7 = load i32, ptr @g_active_children, align 4
  %8 = add nsw i32 %7, -1
  store i32 %8, ptr @g_active_children, align 4
  br label %22

9:                                                ; preds = %1
  store i16 -1, ptr @g_terminate, align 2
  br label %22

10:                                               ; preds = %1
  store i16 -1, ptr @g_terminate, align 2
  br label %22

11:                                               ; preds = %1
  store i16 -2, ptr @g_terminate, align 2
  br label %22

12:                                               ; preds = %1
  %13 = load i8, ptr @g_freshclamTempDirectory, align 16
  %.not1 = icmp eq i8 %13, 0
  br i1 %.not1, label %16, label %14

14:                                               ; preds = %12
  %15 = tail call i32 @cli_rmdirs(ptr noundef nonnull @g_freshclamTempDirectory) #17
  br label %16

16:                                               ; preds = %14, %12
  %17 = load ptr, ptr @g_pidfile, align 8
  %.not2 = icmp eq ptr %17, null
  br i1 %.not2, label %20, label %18

18:                                               ; preds = %16
  %19 = tail call i32 @unlink(ptr noundef nonnull %17) #17
  br label %20

20:                                               ; preds = %18, %16
  %21 = tail call i32 (i32, ptr, ...) @logg(i32 noundef 0, ptr noundef nonnull @.str.229) #17
  tail call void @exit(i32 noundef 0) #19
  unreachable

22:                                               ; preds = %1, %11, %10, %9, %6
  ret void
}